target datalayout = "e-m:e-p270:32:32-p271:32:32-p272:64:64-i64:64-i128:128-f80:128-n8:16:32:64-S128"
target triple = "x86_64-pc-linux-gnu"

%struct.lua_State = type { i8, i8, i8, i8, i8, i8, i8, ptr, ptr, ptr, ptr, ptr, ptr, ptr, ptr, i32, i32, i16, i16, i32, ptr, ptr, ptr, ptr, ptr }
%struct.CallInfo = type { ptr, ptr, ptr, ptr, i32, i32 }
%struct.lua_TValue = type { %union.Value, [1 x i32], i32 }
%union.Value = type { ptr }
%struct.Closure = type { i8, i8, i8, i8, i8, i8, i8, ptr, ptr, %union.anon.0 }
%union.anon.0 = type { %struct.anon }
%struct.anon = type { ptr, ptr, ptr, [1 x %struct.lua_TValue] }

@.str.13 = private unnamed_addr constant [29 x i8] c"cannot resume dead coroutine\00", align 1

; Function Attrs: mustprogress uwtable
define internal void @_ZL15resume_continueP9lua_State(ptr noundef %0) #2 {
  %2 = alloca ptr, align 8
  %3 = alloca ptr, align 8
  %4 = alloca i32, align 4
  %5 = alloca i32, align 4
  store ptr %0, ptr %2, align 8, !tbaa !20
  br label %6

6:                                                ; preds = %64, %1
  %7 = load ptr, ptr %2, align 8, !tbaa !20
  %8 = getelementptr inbounds nuw %struct.lua_State, ptr %7, i32 0, i32 3
  %9 = load i8, ptr %8, align 1, !tbaa !90
  %10 = zext i8 %9 to i32
  %11 = icmp eq i32 %10, 0
  br i1 %11, label %12, label %20

12:                                               ; preds = %6
  %13 = load ptr, ptr %2, align 8, !tbaa !20
  %14 = getelementptr inbounds nuw %struct.lua_State, ptr %13, i32 0, i32 10
  %15 = load ptr, ptr %14, align 8, !tbaa !35
  %16 = load ptr, ptr %2, align 8, !tbaa !20
  %17 = getelementptr inbounds nuw %struct.lua_State, ptr %16, i32 0, i32 14
  %18 = load ptr, ptr %17, align 8, !tbaa !67
  %19 = icmp ugt ptr %15, %18
  br label %20

20:                                               ; preds = %12, %6
  %21 = phi i1 [ false, %6 ], [ %19, %12 ]
  br i1 %21, label %22, label %65

22:                                               ; preds = %20
  call void @llvm.lifetime.start.p0(i64 8, ptr %3) #15
  %23 = load ptr, ptr %2, align 8, !tbaa !20
  %24 = getelementptr inbounds nuw %struct.lua_State, ptr %23, i32 0, i32 10
  %25 = load ptr, ptr %24, align 8, !tbaa !35
  %26 = getelementptr inbounds nuw %struct.CallInfo, ptr %25, i32 0, i32 1
  %27 = load ptr, ptr %26, align 8, !tbaa !68
  %28 = getelementptr inbounds nuw %struct.lua_TValue, ptr %27, i32 0, i32 0
  %29 = load ptr, ptr %28, align 8, !tbaa !65
  store ptr %29, ptr %3, align 8, !tbaa !93
  %30 = load ptr, ptr %3, align 8, !tbaa !93
  %31 = getelementptr inbounds nuw %struct.Closure, ptr %30, i32 0, i32 3
  %32 = load i8, ptr %31, align 1, !tbaa !95
  %33 = icmp ne i8 %32, 0
  br i1 %33, label %34, label %59

34:                                               ; preds = %22
  call void @llvm.lifetime.start.p0(i64 4, ptr %4) #15
  %35 = load ptr, ptr %3, align 8, !tbaa !93
  %36 = getelementptr inbounds nuw %struct.Closure, ptr %35, i32 0, i32 9
  %37 = getelementptr inbounds nuw %struct.anon, ptr %36, i32 0, i32 1
  %38 = load ptr, ptr %37, align 8, !tbaa !65
  %39 = load ptr, ptr %2, align 8, !tbaa !20
  %40 = call noundef i32 %38(ptr noundef %39, i32 noundef 0)
  store i32 %40, ptr %4, align 4, !tbaa !23
  %41 = load ptr, ptr %2, align 8, !tbaa !20
  %42 = getelementptr inbounds nuw %struct.lua_State, ptr %41, i32 0, i32 3
  %43 = load i8, ptr %42, align 1, !tbaa !90
  %44 = zext i8 %43 to i32
  %45 = icmp eq i32 %44, 6
  br i1 %45, label %46, label %47

46:                                               ; preds = %34
  store i32 3, ptr %5, align 4
  br label %56

47:                                               ; preds = %34
  %48 = load ptr, ptr %2, align 8, !tbaa !20
  %49 = load ptr, ptr %2, align 8, !tbaa !20
  %50 = getelementptr inbounds nuw %struct.lua_State, ptr %49, i32 0, i32 7
  %51 = load ptr, ptr %50, align 8, !tbaa !51
  %52 = load i32, ptr %4, align 4, !tbaa !23
  %53 = sext i32 %52 to i64
  %54 = sub i64 0, %53
  %55 = getelementptr inbounds %struct.lua_TValue, ptr %51, i64 %54
  call void @_Z12luau_poscallP9lua_StateP10lua_TValue(ptr noundef %48, ptr noundef %55)
  store i32 0, ptr %5, align 4
  br label %56

56:                                               ; preds = %47, %46
  call void @llvm.lifetime.end.p0(i64 4, ptr %4) #15
  %57 = load i32, ptr %5, align 4
  switch i32 %57, label %62 [
    i32 0, label %58
  ]

58:                                               ; preds = %56
  br label %61

59:                                               ; preds = %22
  %60 = load ptr, ptr %2, align 8, !tbaa !20
  call void @_Z12luau_executeP9lua_State(ptr noundef %60)
  br label %61

61:                                               ; preds = %59, %58
  store i32 0, ptr %5, align 4
  br label %62

62:                                               ; preds = %61, %56
  call void @llvm.lifetime.end.p0(i64 8, ptr %3) #15
  %63 = load i32, ptr %5, align 4
  switch i32 %63, label %66 [
    i32 0, label %64
    i32 3, label %65
  ]

64:                                               ; preds = %62
  br label %6, !llvm.loop !102

65:                                               ; preds = %62, %20
  ret void

66:                                               ; preds = %62
  unreachable
}

; Function Attrs: mustprogress uwtable
define internal void @_ZL6resumeP9lua_StatePv(ptr noundef %0, ptr noundef %1) #2 {
  %3 = alloca ptr, align 8
  %4 = alloca ptr, align 8
  %5 = alloca ptr, align 8
  %6 = alloca i32, align 4
  %7 = alloca ptr, align 8
  store ptr %0, ptr %3, align 8, !tbaa !20
  store ptr %1, ptr %4, align 8, !tbaa !22
  call void @llvm.lifetime.start.p0(i64 8, ptr %5) #15
  %8 = load ptr, ptr %4, align 8, !tbaa !22
  store ptr %8, ptr %5, align 8, !tbaa !53
  %9 = load ptr, ptr %3, align 8, !tbaa !20
  %10 = getelementptr inbounds nuw %struct.lua_State, ptr %9, i32 0, i32 3
  %11 = load i8, ptr %10, align 1, !tbaa !90
  %12 = zext i8 %11 to i32
  %13 = icmp eq i32 %12, 0
  br i1 %13, label %14, label %36

14:                                               ; preds = %2
  %15 = load ptr, ptr %5, align 8, !tbaa !53
  %16 = load ptr, ptr %3, align 8, !tbaa !20
  %17 = getelementptr inbounds nuw %struct.lua_State, ptr %16, i32 0, i32 8
  %18 = load ptr, ptr %17, align 8, !tbaa !49
  %19 = icmp eq ptr %15, %18
  br i1 %19, label %20, label %22

20:                                               ; preds = %14
  %21 = load ptr, ptr %3, align 8, !tbaa !20
  call void (ptr, ptr, ...) @_Z14luaG_runerrorLP9lua_StatePKcz(ptr noundef %21, ptr noundef @.str.13) #17
  unreachable

22:                                               ; preds = %14
  %23 = load ptr, ptr %3, align 8, !tbaa !20
  %24 = load ptr, ptr %5, align 8, !tbaa !53
  %25 = getelementptr inbounds %struct.lua_TValue, ptr %24, i64 -1
  %26 = call noundef i32 @_Z12luau_precallP9lua_StateP10lua_TValuei(ptr noundef %23, ptr noundef %25, i32 noundef -1)
  %27 = icmp ne i32 %26, 0
  br i1 %27, label %28, label %29

28:                                               ; preds = %22
  store i32 1, ptr %6, align 4
  br label %71

29:                                               ; preds = %22
  %30 = load ptr, ptr %3, align 8, !tbaa !20
  %31 = getelementptr inbounds nuw %struct.lua_State, ptr %30, i32 0, i32 10
  %32 = load ptr, ptr %31, align 8, !tbaa !35
  %33 = getelementptr inbounds nuw %struct.CallInfo, ptr %32, i32 0, i32 5
  %34 = load i32, ptr %33, align 4, !tbaa !75
  %35 = or i32 %34, 1
  store i32 %35, ptr %33, align 4, !tbaa !75
  br label %69

36:                                               ; preds = %2
  %37 = load ptr, ptr %3, align 8, !tbaa !20
  %38 = getelementptr inbounds nuw %struct.lua_State, ptr %37, i32 0, i32 3
  store i8 0, ptr %38, align 1, !tbaa !90
  call void @llvm.lifetime.start.p0(i64 8, ptr %7) #15
  %39 = load ptr, ptr %3, align 8, !tbaa !20
  %40 = getelementptr inbounds nuw %struct.lua_State, ptr %39, i32 0, i32 10
  %41 = load ptr, ptr %40, align 8, !tbaa !35
  %42 = getelementptr inbounds nuw %struct.CallInfo, ptr %41, i32 0, i32 1
  %43 = load ptr, ptr %42, align 8, !tbaa !68
  %44 = getelementptr inbounds nuw %struct.lua_TValue, ptr %43, i32 0, i32 0
  %45 = load ptr, ptr %44, align 8, !tbaa !65
  store ptr %45, ptr %7, align 8, !tbaa !93
  %46 = load ptr, ptr %7, align 8, !tbaa !93
  %47 = getelementptr inbounds nuw %struct.Closure, ptr %46, i32 0, i32 3
  %48 = load i8, ptr %47, align 1, !tbaa !95
  %49 = icmp ne i8 %48, 0
  br i1 %49, label %50, label %60

50:                                               ; preds = %36
  %51 = load ptr, ptr %7, align 8, !tbaa !93
  %52 = getelementptr inbounds nuw %struct.Closure, ptr %51, i32 0, i32 9
  %53 = getelementptr inbounds nuw %struct.anon, ptr %52, i32 0, i32 1
  %54 = load ptr, ptr %53, align 8, !tbaa !65
  %55 = icmp ne ptr %54, null
  br i1 %55, label %59, label %56

56:                                               ; preds = %50
  %57 = load ptr, ptr %3, align 8, !tbaa !20
  %58 = load ptr, ptr %5, align 8, !tbaa !53
  call void @_Z12luau_poscallP9lua_StateP10lua_TValue(ptr noundef %57, ptr noundef %58)
  br label %59

59:                                               ; preds = %56, %50
  br label %68

60:                                               ; preds = %36
  %61 = load ptr, ptr %3, align 8, !tbaa !20
  %62 = getelementptr inbounds nuw %struct.lua_State, ptr %61, i32 0, i32 10
  %63 = load ptr, ptr %62, align 8, !tbaa !35
  %64 = getelementptr inbounds nuw %struct.CallInfo, ptr %63, i32 0, i32 0
  %65 = load ptr, ptr %64, align 8, !tbaa !46
  %66 = load ptr, ptr %3, align 8, !tbaa !20
  %67 = getelementptr inbounds nuw %struct.lua_State, ptr %66, i32 0, i32 8
  store ptr %65, ptr %67, align 8, !tbaa !49
  br label %68

68:                                               ; preds = %60, %59
  call void @llvm.lifetime.end.p0(i64 8, ptr %7) #15
  br label %69

69:                                               ; preds = %68, %29
  %70 = load ptr, ptr %3, align 8, !tbaa !20
  call void @_ZL15resume_continueP9lua_State(ptr noundef %70)
  store i32 0, ptr %6, align 4
  br label %71

71:                                               ; preds = %69, %28
  call void @llvm.lifetime.end.p0(i64 8, ptr %5) #15
  %72 = load i32, ptr %6, align 4
  switch i32 %72, label %74 [
    i32 0, label %73
    i32 1, label %73
  ]

73:                                               ; preds = %71, %71
  ret void

74:                                               ; preds = %71
  unreachable
}