; Function Attrs: mustprogress uwtable
define internal void @_ZL6resumeP9lua_StatePv(ptr noundef %0, ptr noundef %1) #0 {
  %3 = getelementptr inbounds nuw i8, ptr %0, i64 3
  %4 = load i8, ptr %3, align 1, !tbaa !72
  %5 = icmp eq i8 %4, 0
  br i1 %5, label %6, label %20

6:                                                ; preds = %2
  %7 = getelementptr inbounds nuw i8, ptr %0, i64 16
  %8 = load ptr, ptr %7, align 8, !tbaa !35
  %9 = icmp eq ptr %1, %8
  br i1 %9, label %10, label %11

10:                                               ; preds = %6
  tail call void (ptr, ptr, ...) @_Z14luaG_runerrorLP9lua_StatePKcz(ptr noundef nonnull %0, ptr noundef nonnull @.str.13) #18
  unreachable

11:                                               ; preds = %6
  %12 = getelementptr inbounds i8, ptr %1, i64 -16
  %13 = tail call noundef i32 @_Z12luau_precallP9lua_StateP10lua_TValuei(ptr noundef nonnull %0, ptr noundef nonnull %12, i32 noundef -1)
  %.not18 = icmp eq i32 %13, 0
  br i1 %.not18, label %14, label %_ZL15resume_continueP9lua_State.exit

14:                                               ; preds = %11
  %15 = getelementptr inbounds nuw i8, ptr %0, i64 32
  %16 = load ptr, ptr %15, align 8, !tbaa !22
  %17 = getelementptr inbounds nuw i8, ptr %16, i64 36
  %18 = load i32, ptr %17, align 4, !tbaa !56
  %19 = or i32 %18, 1
  store i32 %19, ptr %17, align 4, !tbaa !56
  br label %35

20:                                               ; preds = %2
  store i8 0, ptr %3, align 1, !tbaa !72
  %21 = getelementptr inbounds nuw i8, ptr %0, i64 32
  %22 = load ptr, ptr %21, align 8, !tbaa !22
  %23 = getelementptr inbounds nuw i8, ptr %22, i64 8
  %24 = load ptr, ptr %23, align 8, !tbaa !48
  %25 = load ptr, ptr %24, align 8, !tbaa !42
  %26 = getelementptr inbounds nuw i8, ptr %25, i64 3
  %27 = load i8, ptr %26, align 1, !tbaa !78
  %.not = icmp eq i8 %27, 0
  br i1 %.not, label %32, label %28

28:                                               ; preds = %20
  %29 = getelementptr inbounds nuw i8, ptr %25, i64 32
  %30 = load ptr, ptr %29, align 8, !tbaa !42
  %.not17 = icmp eq ptr %30, null
  br i1 %.not17, label %31, label %35

31:                                               ; preds = %28
  tail call void @_Z12luau_poscallP9lua_StateP10lua_TValue(ptr noundef nonnull %0, ptr noundef %1)
  br label %35

32:                                               ; preds = %20
  %33 = load ptr, ptr %22, align 8, !tbaa !32
  %34 = getelementptr inbounds nuw i8, ptr %0, i64 16
  store ptr %33, ptr %34, align 8, !tbaa !35
  br label %35

35:                                               ; preds = %32, %31, %28, %14
  %36 = getelementptr inbounds nuw i8, ptr %0, i64 32
  %37 = load i8, ptr %3, align 1, !tbaa !72
  %38 = icmp eq i8 %37, 0
  br i1 %38, label %.lr.ph.i, label %_ZL15resume_continueP9lua_State.exit

.lr.ph.i:                                         ; preds = %35
  %39 = getelementptr inbounds nuw i8, ptr %0, i64 64
  %40 = getelementptr inbounds nuw i8, ptr %0, i64 8
  br label %41

41:                                               ; preds = %62, %.lr.ph.i
  %42 = load ptr, ptr %36, align 8, !tbaa !22
  %43 = load ptr, ptr %39, align 8, !tbaa !43
  %44 = icmp ugt ptr %42, %43
  br i1 %44, label %45, label %_ZL15resume_continueP9lua_State.exit

45:                                               ; preds = %41
  %46 = getelementptr inbounds nuw i8, ptr %42, i64 8
  %47 = load ptr, ptr %46, align 8, !tbaa !48
  %48 = load ptr, ptr %47, align 8, !tbaa !42
  %49 = getelementptr inbounds nuw i8, ptr %48, i64 3
  %50 = load i8, ptr %49, align 1, !tbaa !78
  %.not.i = icmp eq i8 %50, 0
  br i1 %.not.i, label %61, label %51

51:                                               ; preds = %45
  %52 = getelementptr inbounds nuw i8, ptr %48, i64 32
  %53 = load ptr, ptr %52, align 8, !tbaa !42
  %54 = tail call noundef i32 %53(ptr noundef nonnull %0, i32 noundef 0)
  %55 = load i8, ptr %3, align 1, !tbaa !72
  %.not14.i = icmp eq i8 %55, 6
  br i1 %.not14.i, label %_ZL15resume_continueP9lua_State.exit, label %56

56:                                               ; preds = %51
  %57 = load ptr, ptr %40, align 8, !tbaa !37
  %58 = sext i32 %54 to i64
  %59 = sub nsw i64 0, %58
  %60 = getelementptr inbounds %struct.lua_TValue, ptr %57, i64 %59
  tail call void @_Z12luau_poscallP9lua_StateP10lua_TValue(ptr noundef nonnull %0, ptr noundef %60)
  br label %62

61:                                               ; preds = %45
  tail call void @_Z12luau_executeP9lua_State(ptr noundef nonnull %0)
  br label %62

62:                                               ; preds = %61, %56
  %63 = load i8, ptr %3, align 1, !tbaa !72
  %64 = icmp eq i8 %63, 0
  br i1 %64, label %41, label %_ZL15resume_continueP9lua_State.exit

_ZL15resume_continueP9lua_State.exit:             ; preds = %62, %51, %41, %35, %11
  ret void
}